target datalayout = "e-m:e-p270:32:32-p271:32:32-p272:64:64-i64:64-i128:128-f80:128-n8:16:32:64-S128"
target triple = "x86_64-pc-linux-gnu"

%struct.PJ_LP = type { double, double }
%struct.PJ_XY = type { double, double }

; Function Attrs: mustprogress uwtable
define internal { double, double } @_ZL10auto_e_fwd5PJ_LPP8PJconsts(double %0, double %1, ptr noundef %2) #0 {
  %4 = alloca %struct.PJ_XY, align 8
  %5 = alloca %struct.PJ_LP, align 8
  %6 = alloca ptr, align 8
  %7 = alloca %struct.PJ_LP, align 8
  %8 = alloca %struct.PJ_LP, align 8
  %9 = getelementptr inbounds nuw { double, double }, ptr %5, i32 0, i32 0
  store double %0, ptr %9, align 8
  %10 = getelementptr inbounds nuw { double, double }, ptr %5, i32 0, i32 1
  store double %1, ptr %10, align 8
  store ptr %2, ptr %6, align 8, !tbaa !3
  %11 = getelementptr inbounds nuw %struct.PJ_LP, ptr %5, i32 0, i32 0
  %12 = load double, ptr %11, align 8, !tbaa !103
  %13 = call double @llvm.fabs.f64(double %12)
  %14 = fcmp ogt double %13, 0x3FAACEE9F37BEBD6
  br i1 %14, label %15, label %26

15:                                               ; preds = %3
  call void @llvm.memcpy.p0.p0.i64(ptr align 8 %7, ptr align 8 %5, i64 16, i1 false), !tbaa.struct !99
  %16 = load ptr, ptr %6, align 8, !tbaa !3
  %17 = getelementptr inbounds nuw { double, double }, ptr %7, i32 0, i32 0
  %18 = load double, ptr %17, align 8
  %19 = getelementptr inbounds nuw { double, double }, ptr %7, i32 0, i32 1
  %20 = load double, ptr %19, align 8
  %21 = call { double, double } @_ZL11exact_e_fwd5PJ_LPP8PJconsts(double %18, double %20, ptr noundef %16)
  %22 = getelementptr inbounds nuw { double, double }, ptr %4, i32 0, i32 0
  %23 = extractvalue { double, double } %21, 0
  store double %23, ptr %22, align 8
  %24 = getelementptr inbounds nuw { double, double }, ptr %4, i32 0, i32 1
  %25 = extractvalue { double, double } %21, 1
  store double %25, ptr %24, align 8
  br label %37

26:                                               ; preds = %3
  call void @llvm.memcpy.p0.p0.i64(ptr align 8 %8, ptr align 8 %5, i64 16, i1 false), !tbaa.struct !99
  %27 = load ptr, ptr %6, align 8, !tbaa !3
  %28 = getelementptr inbounds nuw { double, double }, ptr %8, i32 0, i32 0
  %29 = load double, ptr %28, align 8
  %30 = getelementptr inbounds nuw { double, double }, ptr %8, i32 0, i32 1
  %31 = load double, ptr %30, align 8
  %32 = call { double, double } @_ZL12approx_e_fwd5PJ_LPP8PJconsts(double %29, double %31, ptr noundef %27)
  %33 = getelementptr inbounds nuw { double, double }, ptr %4, i32 0, i32 0
  %34 = extractvalue { double, double } %32, 0
  store double %34, ptr %33, align 8
  %35 = getelementptr inbounds nuw { double, double }, ptr %4, i32 0, i32 1
  %36 = extractvalue { double, double } %32, 1
  store double %36, ptr %35, align 8
  br label %37

37:                                               ; preds = %26, %15
  %38 = load { double, double }, ptr %4, align 8
  ret { double, double } %38
}