; Function Attrs: mustprogress uwtable
define internal { double, double } @_ZL10auto_e_fwd5PJ_LPP8PJconsts(double %0, double %1, ptr noundef %2) #0 {
  %4 = tail call double @llvm.fabs.f64(double %0)
  %5 = fcmp ogt double %4, 0x3FAACEE9F37BEBD6
  br i1 %5, label %6, label %8

6:                                                ; preds = %3
  %7 = tail call { double, double } @_ZL11exact_e_fwd5PJ_LPP8PJconsts(double %0, double %1, ptr noundef %2)
  br label %10

8:                                                ; preds = %3
  %9 = tail call { double, double } @_ZL12approx_e_fwd5PJ_LPP8PJconsts(double %0, double %1, ptr noundef %2)
  br label %10

10:                                               ; preds = %8, %6
  %.pn = phi { double, double } [ %7, %6 ], [ %9, %8 ]
  ret { double, double } %.pn
}